; Function Attrs: mustprogress uwtable
define hidden noundef ptr @_ZNK7datalog12sparse_table5cloneEv(ptr noundef nonnull align 8 dereferenceable(184) %this) unnamed_addr #3 align 2 {
entry:
  %m_plugin.i.i = getelementptr inbounds i8, ptr %this, i64 8
  %0 = load ptr, ptr %m_plugin.i.i, align 8
  %m_signature.i.i = getelementptr inbounds i8, ptr %this, i64 16
  %vtable.i = load ptr, ptr %0, align 8
  %vfn.i = getelementptr inbounds i8, ptr %vtable.i, i64 40
  %1 = load ptr, ptr %vfn.i, align 8
  %call2.i = tail call noundef ptr %1(ptr noundef nonnull align 8 dereferenceable(56) %0, ptr noundef nonnull align 8 dereferenceable(12) %m_signature.i.i)
  %2 = icmp eq ptr %call2.i, null
  br i1 %2, label %_ZN7datalog19sparse_table_plugin8mk_cloneERKNS_12sparse_tableE.exit, label %dynamic_cast.notnull.i.i

dynamic_cast.notnull.i.i:                         ; preds = %entry
  %3 = tail call ptr @__dynamic_cast(ptr nonnull %call2.i, ptr nonnull @_ZTIN7datalog10table_baseE, ptr nonnull @_ZTIN7datalog12sparse_tableE, i64 0) #25
  br label %_ZN7datalog19sparse_table_plugin8mk_cloneERKNS_12sparse_tableE.exit

_ZN7datalog19sparse_table_plugin8mk_cloneERKNS_12sparse_tableE.exit: ; preds = %entry, %dynamic_cast.notnull.i.i
  %4 = phi ptr [ %3, %dynamic_cast.notnull.i.i ], [ null, %entry ]
  %m_data.i = getelementptr inbounds i8, ptr %this, i64 72
  %m_data4.i = getelementptr inbounds i8, ptr %4, i64 72
  %call5.i = tail call noundef nonnull align 8 dereferenceable(88) ptr @_ZN7datalog13entry_storageaSERKS0_(ptr noundef nonnull align 8 dereferenceable(88) %m_data4.i, ptr noundef nonnull align 8 dereferenceable(88) %m_data.i)
  ret ptr %4
}